; Function Attrs: mustprogress nofree nounwind willreturn memory(read) uwtable
define hidden noundef ptr @_ZN7nanogui6Widget6windowEv(ptr noundef nonnull readonly align 8 dereferenceable(140) %0) local_unnamed_addr #10 align 2 {
  br label %2

2:                                                ; preds = %1, %4
  %.0710 = phi ptr [ %0, %1 ], [ %6, %4 ]
  %3 = tail call ptr @__dynamic_cast(ptr nonnull %.0710, ptr nonnull @_ZTIN7nanogui6WidgetE, ptr nonnull @_ZTIN7nanogui6WindowE, i64 0) #18
  %.not9 = icmp eq ptr %3, null
  br i1 %.not9, label %4, label %7

4:                                                ; preds = %2
  %5 = getelementptr inbounds i8, ptr %.0710, i64 16
  %6 = load ptr, ptr %5, align 8
  %.not = icmp eq ptr %6, null
  br i1 %.not, label %7, label %2, !llvm.loop !45

7:                                                ; preds = %2, %4
  ret ptr %3
}